; Function Attrs: mustprogress nofree nounwind willreturn memory(read, inaccessiblemem: none) uwtable
define dso_local noundef zeroext i1 @_ZNK4llvm2gi33AtomicOrderingMMOPredicateMatcher11isIdenticalERKNS0_16PredicateMatcherE(ptr nocapture noundef nonnull readonly align 8 dereferenceable(44) %0, ptr nocapture noundef nonnull readonly align 8 dereferenceable(20) %1) unnamed_addr #14 align 2 {
  %3 = getelementptr inbounds nuw i8, ptr %1, i64 8
  %4 = load i32, ptr %3, align 8
  %5 = getelementptr inbounds nuw i8, ptr %0, i64 8
  %6 = load i32, ptr %5, align 8
  %7 = icmp eq i32 %4, %6
  br i1 %7, label %8, label %_ZNK4llvm2gi16PredicateMatcher11isIdenticalERKS1_.exit.thread

8:                                                ; preds = %2
  %9 = getelementptr inbounds nuw i8, ptr %0, i64 12
  %10 = load i32, ptr %9, align 4
  %11 = getelementptr inbounds nuw i8, ptr %1, i64 12
  %12 = load i32, ptr %11, align 4
  %13 = icmp eq i32 %10, %12
  br i1 %13, label %_ZNK4llvm2gi16PredicateMatcher11isIdenticalERKS1_.exit, label %_ZNK4llvm2gi16PredicateMatcher11isIdenticalERKS1_.exit.thread

_ZNK4llvm2gi16PredicateMatcher11isIdenticalERKS1_.exit: ; preds = %8
  %14 = getelementptr inbounds nuw i8, ptr %0, i64 16
  %15 = load i32, ptr %14, align 8
  %16 = getelementptr inbounds nuw i8, ptr %1, i64 16
  %17 = load i32, ptr %16, align 8
  %18 = icmp eq i32 %15, %17
  br i1 %18, label %19, label %_ZNK4llvm2gi16PredicateMatcher11isIdenticalERKS1_.exit.thread

19:                                               ; preds = %_ZNK4llvm2gi16PredicateMatcher11isIdenticalERKS1_.exit
  %20 = getelementptr inbounds nuw i8, ptr %0, i64 24
  %.sroa.01.0.copyload = load ptr, ptr %20, align 8
  %.sroa.22.0..sroa_idx = getelementptr inbounds i8, ptr %0, i64 32
  %.sroa.22.0.copyload = load i64, ptr %.sroa.22.0..sroa_idx, align 8
  %21 = getelementptr inbounds nuw i8, ptr %1, i64 24
  %.sroa.0.0.copyload = load ptr, ptr %21, align 8
  %.sroa.2.0..sroa_idx = getelementptr inbounds i8, ptr %1, i64 32
  %.sroa.2.0.copyload = load i64, ptr %.sroa.2.0..sroa_idx, align 8
  %.not.i = icmp eq i64 %.sroa.22.0.copyload, %.sroa.2.0.copyload
  br i1 %.not.i, label %22, label %_ZNK4llvm2gi16PredicateMatcher11isIdenticalERKS1_.exit.thread

22:                                               ; preds = %19
  %23 = icmp eq i64 %.sroa.22.0.copyload, 0
  br i1 %23, label %_ZN4llvmeqENS_9StringRefES0_.exit.thread, label %_ZN4llvmeqENS_9StringRefES0_.exit

_ZN4llvmeqENS_9StringRefES0_.exit:                ; preds = %22
  %bcmp.i = tail call i32 @bcmp(ptr %.sroa.01.0.copyload, ptr %.sroa.0.0.copyload, i64 %.sroa.22.0.copyload)
  %24 = icmp eq i32 %bcmp.i, 0
  br i1 %24, label %_ZN4llvmeqENS_9StringRefES0_.exit.thread, label %_ZNK4llvm2gi16PredicateMatcher11isIdenticalERKS1_.exit.thread

_ZN4llvmeqENS_9StringRefES0_.exit.thread:         ; preds = %22, %_ZN4llvmeqENS_9StringRefES0_.exit
  %25 = getelementptr inbounds nuw i8, ptr %0, i64 40
  %26 = load i32, ptr %25, align 8
  %27 = getelementptr inbounds nuw i8, ptr %1, i64 40
  %28 = load i32, ptr %27, align 8
  %29 = icmp eq i32 %26, %28
  br label %_ZNK4llvm2gi16PredicateMatcher11isIdenticalERKS1_.exit.thread

_ZNK4llvm2gi16PredicateMatcher11isIdenticalERKS1_.exit.thread: ; preds = %19, %2, %8, %_ZN4llvmeqENS_9StringRefES0_.exit, %_ZN4llvmeqENS_9StringRefES0_.exit.thread, %_ZNK4llvm2gi16PredicateMatcher11isIdenticalERKS1_.exit
  %.0 = phi i1 [ false, %_ZNK4llvm2gi16PredicateMatcher11isIdenticalERKS1_.exit ], [ false, %_ZN4llvmeqENS_9StringRefES0_.exit ], [ %29, %_ZN4llvmeqENS_9StringRefES0_.exit.thread ], [ false, %8 ], [ false, %2 ], [ false, %19 ]
  ret i1 %.0
}